target datalayout = "e-m:e-p270:32:32-p271:32:32-p272:64:64-i64:64-i128:128-f80:128-n8:16:32:64-S128"
target triple = "x86_64-pc-linux-gnu"

%struct.uv_buf_t = type { ptr, i64 }

; Function Attrs: nounwind uwtable
define dso_local i64 @uv__count_bufs(ptr noundef %0, i32 noundef %1) #0 {
  %3 = alloca ptr, align 8
  %4 = alloca i32, align 4
  %5 = alloca i32, align 4
  %6 = alloca i64, align 8
  store ptr %0, ptr %3, align 8, !tbaa !61
  store i32 %1, ptr %4, align 4, !tbaa !15
  call void @llvm.lifetime.start.p0(i64 4, ptr %5) #13
  call void @llvm.lifetime.start.p0(i64 8, ptr %6) #13
  store i64 0, ptr %6, align 8, !tbaa !9
  store i32 0, ptr %5, align 4, !tbaa !15
  br label %7

7:                                                ; preds = %20, %2
  %8 = load i32, ptr %5, align 4, !tbaa !15
  %9 = load i32, ptr %4, align 4, !tbaa !15
  %10 = icmp ult i32 %8, %9
  br i1 %10, label %11, label %23

11:                                               ; preds = %7
  %12 = load ptr, ptr %3, align 8, !tbaa !61
  %13 = load i32, ptr %5, align 4, !tbaa !15
  %14 = zext i32 %13 to i64
  %15 = getelementptr inbounds nuw %struct.uv_buf_t, ptr %12, i64 %14
  %16 = getelementptr inbounds nuw %struct.uv_buf_t, ptr %15, i32 0, i32 1
  %17 = load i64, ptr %16, align 8, !tbaa !22
  %18 = load i64, ptr %6, align 8, !tbaa !9
  %19 = add i64 %18, %17
  store i64 %19, ptr %6, align 8, !tbaa !9
  br label %20

20:                                               ; preds = %11
  %21 = load i32, ptr %5, align 4, !tbaa !15
  %22 = add i32 %21, 1
  store i32 %22, ptr %5, align 4, !tbaa !15
  br label %7, !llvm.loop !83

23:                                               ; preds = %7
  %24 = load i64, ptr %6, align 8, !tbaa !9
  call void @llvm.lifetime.end.p0(i64 8, ptr %6) #13
  call void @llvm.lifetime.end.p0(i64 4, ptr %5) #13
  ret i64 %24
}